; Function Attrs: nounwind uwtable
define void @libpq_append_conn_error(ptr noundef %0, ptr noundef %1, ...) local_unnamed_addr #2 {
  %3 = alloca [1 x %struct.__va_list_tag], align 16
  %4 = tail call ptr @__errno_location() #21
  %5 = load i32, ptr %4, align 4
  call void @llvm.lifetime.start.p0(i64 24, ptr nonnull %3) #19
  %6 = getelementptr inbounds nuw i8, ptr %0, i64 1120
  %7 = getelementptr inbounds nuw i8, ptr %0, i64 1136
  %8 = load i64, ptr %7, align 8
  %9 = icmp eq i64 %8, 0
  br i1 %9, label %12, label %.preheader

.preheader:                                       ; preds = %2, %.preheader
  store i32 %5, ptr %4, align 4
  call void @llvm.va_start.p0(ptr nonnull %3)
  %10 = call zeroext i1 @appendPQExpBufferVA(ptr noundef nonnull %6, ptr noundef %1, ptr noundef nonnull %3) #19
  call void @llvm.va_end.p0(ptr nonnull %3)
  br i1 %10, label %11, label %.preheader, !llvm.loop !12

11:                                               ; preds = %.preheader
  call void @appendPQExpBufferChar(ptr noundef nonnull %6, i8 noundef signext 10) #19
  br label %12

12:                                               ; preds = %2, %11
  call void @llvm.lifetime.end.p0(i64 24, ptr nonnull %3) #19
  ret void
}